; Function Attrs: nounwind uwtable
define internal fastcc range(i32 -1, 1) i32 @realize(ptr noundef captures(none) %0) unnamed_addr #0 {
  %2 = getelementptr inbounds nuw i8, ptr %0, i64 48
  %3 = load i32, ptr %2, align 8, !tbaa !62
  %4 = icmp eq i32 %3, 1
  br i1 %4, label %Py_DECREF.exit16, label %5

5:                                                ; preds = %1
  store i32 1, ptr %2, align 8, !tbaa !62
  %6 = getelementptr inbounds nuw i8, ptr %0, i64 56
  %7 = load ptr, ptr %6, align 8, !tbaa !22
  %8 = tail call ptr @PyUnicodeWriter_Finish(ptr noundef %7) #6
  store ptr null, ptr %6, align 8, !tbaa !22
  %9 = icmp eq ptr %8, null
  br i1 %9, label %Py_DECREF.exit16, label %10

10:                                               ; preds = %5
  %11 = getelementptr i8, ptr %8, i64 16
  %.val = load i64, ptr %11, align 8, !tbaa !49
  %12 = getelementptr inbounds nuw i8, ptr %0, i64 40
  %13 = load i64, ptr %12, align 8, !tbaa !61
  %14 = add i64 %.val, 1
  %15 = icmp slt i64 %14, 0
  br i1 %15, label %47, label %16

16:                                               ; preds = %10
  %17 = lshr i64 %13, 1
  %18 = icmp samesign ult i64 %14, %17
  br i1 %18, label %19, label %21

19:                                               ; preds = %16
  %20 = add nsw i64 %.val, 2
  br label %36

21:                                               ; preds = %16
  %22 = icmp ult i64 %14, %13
  br i1 %22, label %.resize_buffer.exit_crit_edge, label %23

.resize_buffer.exit_crit_edge:                    ; preds = %21
  %.phi.trans.insert = getelementptr inbounds nuw i8, ptr %0, i64 16
  %.pre = load ptr, ptr %.phi.trans.insert, align 8, !tbaa !21
  br label %resize_buffer.exit

23:                                               ; preds = %21
  %24 = uitofp nneg i64 %14 to double
  %25 = uitofp nneg i64 %13 to double
  %26 = fmul double %25, 1.125000e+00
  %27 = fcmp ult double %26, %24
  br i1 %27, label %34, label %28

28:                                               ; preds = %23
  %29 = lshr i64 %14, 3
  %30 = add nuw i64 %29, %14
  %31 = icmp samesign ult i64 %14, 9
  %32 = select i1 %31, i64 3, i64 6
  %33 = add nuw i64 %30, %32
  br label %36

34:                                               ; preds = %23
  %35 = add i64 %.val, 2
  br label %36

36:                                               ; preds = %34, %28, %19
  %.0.i = phi i64 [ %20, %19 ], [ %33, %28 ], [ %35, %34 ]
  %37 = icmp ugt i64 %.0.i, 4611686018427387903
  br i1 %37, label %47, label %38

38:                                               ; preds = %36
  %39 = getelementptr inbounds nuw i8, ptr %0, i64 16
  %40 = load ptr, ptr %39, align 8, !tbaa !21
  %41 = shl nuw i64 %.0.i, 2
  %42 = tail call ptr @PyMem_Realloc(ptr noundef %40, i64 noundef %41) #6
  %43 = icmp eq ptr %42, null
  br i1 %43, label %44, label %46

44:                                               ; preds = %38
  %45 = tail call ptr @PyErr_NoMemory() #6
  br label %49

46:                                               ; preds = %38
  store i64 %.0.i, ptr %12, align 8, !tbaa !61
  store ptr %42, ptr %39, align 8, !tbaa !21
  br label %resize_buffer.exit

47:                                               ; preds = %36, %10
  %48 = load ptr, ptr @PyExc_OverflowError, align 8, !tbaa !37
  tail call void @PyErr_SetString(ptr noundef %48, ptr noundef nonnull @.str.5) #6
  br label %49

49:                                               ; preds = %47, %44
  %50 = load i32, ptr %8, align 8, !tbaa !32
  %.not.i15 = icmp sgt i32 %50, -1
  br i1 %.not.i15, label %51, label %Py_DECREF.exit16

51:                                               ; preds = %49
  %52 = add nsw i32 %50, -1
  store i32 %52, ptr %8, align 8, !tbaa !32
  %53 = icmp eq i32 %52, 0
  br i1 %53, label %54, label %Py_DECREF.exit16

54:                                               ; preds = %51
  tail call void @_Py_Dealloc(ptr noundef nonnull %8) #6
  br label %Py_DECREF.exit16

resize_buffer.exit:                               ; preds = %.resize_buffer.exit_crit_edge, %46
  %55 = phi ptr [ %.pre, %.resize_buffer.exit_crit_edge ], [ %42, %46 ]
  %56 = tail call ptr @PyUnicode_AsUCS4(ptr noundef nonnull %8, ptr noundef %55, i64 noundef %.val, i32 noundef 0) #6
  %.not = icmp eq ptr %56, null
  %57 = load i32, ptr %8, align 8, !tbaa !32
  %.not.i = icmp sgt i32 %57, -1
  br i1 %.not.i, label %58, label %Py_DECREF.exit

58:                                               ; preds = %resize_buffer.exit
  %59 = add nsw i32 %57, -1
  store i32 %59, ptr %8, align 8, !tbaa !32
  %60 = icmp eq i32 %59, 0
  br i1 %60, label %61, label %Py_DECREF.exit

61:                                               ; preds = %58
  tail call void @_Py_Dealloc(ptr noundef nonnull %8) #6
  br label %Py_DECREF.exit

Py_DECREF.exit:                                   ; preds = %resize_buffer.exit, %58, %61
  %. = sext i1 %.not to i32
  br label %Py_DECREF.exit16

Py_DECREF.exit16:                                 ; preds = %54, %51, %49, %Py_DECREF.exit, %5, %1
  %.0 = phi i32 [ 0, %1 ], [ -1, %5 ], [ %., %Py_DECREF.exit ], [ -1, %49 ], [ -1, %51 ], [ -1, %54 ]
  ret i32 %.0
}